; ModuleID = 'source-C-CXX/27/1386.c'
source_filename = "source-C-CXX/27/1386.c"
target datalayout = "e-m:e-p270:32:32-p271:32:32-p272:64:64-i64:64-f80:128-n8:16:32:64-S128"
target triple = "x86_64-pc-linux-gnu"

@.str = private unnamed_addr constant [4 x i8] c"%d,\00", align 1
@.str.1 = private unnamed_addr constant [3 x i8] c"%d\00", align 1

; Function Attrs: nounwind sspstrong uwtable
define dso_local i32 @main() local_unnamed_addr #0 {
  %1 = alloca [1000 x i8], align 16
  %2 = alloca [300 x i32], align 16
  %3 = getelementptr inbounds [1000 x i8], [1000 x i8]* %1, i64 0, i64 0
  call void @llvm.lifetime.start.p0i8(i64 1000, i8* nonnull %3) #5
  %4 = bitcast [300 x i32]* %2 to i8*
  call void @llvm.lifetime.start.p0i8(i64 1200, i8* nonnull %4) #5
  %5 = call i32 (i8*, ...) bitcast (i32 (...)* @gets to i32 (i8*, ...)*)(i8* nonnull %3) #5
  %6 = call i64 @strlen(i8* noundef nonnull %3) #6
  %7 = trunc i64 %6 to i32
  %8 = icmp sgt i32 %7, 1
  br i1 %8, label %11, label %9

9:                                                ; preds = %0
  %10 = getelementptr inbounds [300 x i32], [300 x i32]* %2, i64 0, i64 0
  store i32 1, i32* %10, align 16, !tbaa !5
  br label %54

11:                                               ; preds = %0
  %12 = add i64 %6, 4294967295
  %13 = and i64 %12, 4294967295
  br label %14

14:                                               ; preds = %11, %34
  %15 = phi i64 [ 0, %11 ], [ %35, %34 ]
  %16 = phi i32 [ 0, %11 ], [ %38, %34 ]
  %17 = phi i32 [ 0, %11 ], [ %37, %34 ]
  %18 = phi i32 [ 0, %11 ], [ %36, %34 ]
  %19 = getelementptr inbounds [1000 x i8], [1000 x i8]* %1, i64 0, i64 %15
  %20 = load i8, i8* %19, align 1, !tbaa !9
  %21 = icmp eq i8 %20, 32
  br i1 %21, label %25, label %22

22:                                               ; preds = %14
  %23 = add nsw i32 %18, 1
  %24 = add nuw nsw i64 %15, 1
  br label %34

25:                                               ; preds = %14
  %26 = add nuw nsw i64 %15, 1
  %27 = getelementptr inbounds [1000 x i8], [1000 x i8]* %1, i64 0, i64 %26
  %28 = load i8, i8* %27, align 1, !tbaa !9
  %29 = icmp eq i8 %28, 32
  br i1 %29, label %34, label %30

30:                                               ; preds = %25
  %31 = sext i32 %17 to i64
  %32 = getelementptr inbounds [300 x i32], [300 x i32]* %2, i64 0, i64 %31
  store i32 %18, i32* %32, align 4, !tbaa !5
  %33 = add nsw i32 %17, 1
  br label %34

34:                                               ; preds = %25, %22, %30
  %35 = phi i64 [ %26, %25 ], [ %24, %22 ], [ %26, %30 ]
  %36 = phi i32 [ %18, %25 ], [ %23, %22 ], [ 0, %30 ]
  %37 = phi i32 [ %17, %25 ], [ %17, %22 ], [ %33, %30 ]
  %38 = phi i32 [ %16, %25 ], [ %16, %22 ], [ %33, %30 ]
  %39 = icmp eq i64 %35, %13
  br i1 %39, label %40, label %14, !llvm.loop !10

40:                                               ; preds = %34
  %41 = add nsw i32 %36, 1
  %42 = sext i32 %37 to i64
  %43 = getelementptr inbounds [300 x i32], [300 x i32]* %2, i64 0, i64 %42
  store i32 %41, i32* %43, align 4, !tbaa !5
  %44 = icmp sgt i32 %38, 0
  br i1 %44, label %45, label %54

45:                                               ; preds = %40
  %46 = zext i32 %38 to i64
  br label %47

47:                                               ; preds = %45, %47
  %48 = phi i64 [ 0, %45 ], [ %52, %47 ]
  %49 = getelementptr inbounds [300 x i32], [300 x i32]* %2, i64 0, i64 %48
  %50 = load i32, i32* %49, align 4, !tbaa !5
  %51 = call i32 (i8*, ...) @printf(i8* nonnull dereferenceable(1) getelementptr inbounds ([4 x i8], [4 x i8]* @.str, i64 0, i64 0), i32 %50)
  %52 = add nuw nsw i64 %48, 1
  %53 = icmp eq i64 %52, %46
  br i1 %53, label %54, label %47, !llvm.loop !12

54:                                               ; preds = %47, %9, %40
  %55 = phi i32 [ 0, %9 ], [ %38, %40 ], [ %38, %47 ]
  %56 = sext i32 %55 to i64
  %57 = getelementptr inbounds [300 x i32], [300 x i32]* %2, i64 0, i64 %56
  %58 = load i32, i32* %57, align 4, !tbaa !5
  %59 = call i32 (i8*, ...) @printf(i8* nonnull dereferenceable(1) getelementptr inbounds ([3 x i8], [3 x i8]* @.str.1, i64 0, i64 0), i32 %58)
  call void @llvm.lifetime.end.p0i8(i64 1200, i8* nonnull %4) #5
  call void @llvm.lifetime.end.p0i8(i64 1000, i8* nonnull %3) #5
  ret i32 0
}

; Function Attrs: argmemonly mustprogress nofree nosync nounwind willreturn
declare void @llvm.lifetime.start.p0i8(i64 immarg, i8* nocapture) #1

declare i32 @gets(...) local_unnamed_addr #2

; Function Attrs: argmemonly mustprogress nofree nounwind readonly willreturn
declare i64 @strlen(i8* nocapture) local_unnamed_addr #3

; Function Attrs: nofree nounwind
declare noundef i32 @printf(i8* nocapture noundef readonly, ...) local_unnamed_addr #4

; Function Attrs: argmemonly mustprogress nofree nosync nounwind willreturn
declare void @llvm.lifetime.end.p0i8(i64 immarg, i8* nocapture) #1


!llvm.module.flags = !{!0, !1, !2, !3}
!llvm.ident = !{!4}

!0 = !{i32 1, !"wchar_size", i32 4}
!1 = !{i32 7, !"PIC Level", i32 2}
!2 = !{i32 7, !"PIE Level", i32 2}
!3 = !{i32 7, !"uwtable", i32 1}
!4 = !{!"clang version 13.0.0"}
!5 = !{!6, !6, i64 0}
!6 = !{!"int", !7, i64 0}
!7 = !{!"omnipotent char", !8, i64 0}
!8 = !{!"Simple C/C++ TBAA"}
!9 = !{!7, !7, i64 0}
!10 = distinct !{!10, !11}
!11 = !{!"llvm.loop.mustprogress"}
!12 = distinct !{!12, !11}
